; Function Attrs: mustprogress nofree norecurse nosync nounwind willreturn memory(argmem: read) uwtable
define internal noundef i32 @_ZN3gmx8internal14EnumIndexStoreINS_15analysismodules12_GLOBAL__N_110Group2TypeEE10valueCountEv(ptr nocapture noundef nonnull readonly align 8 dereferenceable(48) %0) unnamed_addr #10 align 2 {
  %2 = getelementptr inbounds i8, ptr %0, i64 8
  %3 = getelementptr inbounds i8, ptr %0, i64 16
  %4 = load ptr, ptr %3, align 8
  %5 = load ptr, ptr %2, align 8
  %6 = ptrtoint ptr %4 to i64
  %7 = ptrtoint ptr %5 to i64
  %8 = sub i64 %6, %7
  %9 = lshr exact i64 %8, 2
  %10 = trunc i64 %9 to i32
  ret i32 %10
}